target datalayout = "e-m:e-p270:32:32-p271:32:32-p272:64:64-i64:64-i128:128-f80:128-n8:16:32:64-S128"
target triple = "x86_64-pc-linux-gnu"

%struct.pointnlink_t = type { ptr, ptr }
%struct.deque_t = type { ptr, i64, i64, i64, i64 }

; Function Attrs: nounwind uwtable
define internal i64 @finddqsplit(ptr noundef %0, ptr noundef %1) #0 {
  %3 = alloca i64, align 8
  %4 = alloca ptr, align 8
  %5 = alloca ptr, align 8
  %6 = alloca i64, align 8
  %7 = alloca i32, align 4
  %8 = alloca i64, align 8
  store ptr %0, ptr %4, align 8, !tbaa !70
  store ptr %1, ptr %5, align 8, !tbaa !13
  call void @llvm.lifetime.start.p0(i64 8, ptr %6) #9
  %9 = load ptr, ptr %4, align 8, !tbaa !70
  %10 = getelementptr inbounds nuw %struct.deque_t, ptr %9, i32 0, i32 2
  %11 = load i64, ptr %10, align 8, !tbaa !23
  store i64 %11, ptr %6, align 8, !tbaa !19
  br label %12

12:                                               ; preds = %57, %2
  %13 = load i64, ptr %6, align 8, !tbaa !19
  %14 = load ptr, ptr %4, align 8, !tbaa !70
  %15 = getelementptr inbounds nuw %struct.deque_t, ptr %14, i32 0, i32 4
  %16 = load i64, ptr %15, align 8, !tbaa !43
  %17 = icmp ult i64 %13, %16
  br i1 %17, label %19, label %18

18:                                               ; preds = %12
  store i32 2, ptr %7, align 4
  br label %60

19:                                               ; preds = %12
  %20 = load ptr, ptr %4, align 8, !tbaa !70
  %21 = getelementptr inbounds nuw %struct.deque_t, ptr %20, i32 0, i32 0
  %22 = load ptr, ptr %21, align 8, !tbaa !22
  %23 = load i64, ptr %6, align 8, !tbaa !19
  %24 = add i64 %23, 1
  %25 = getelementptr inbounds nuw ptr, ptr %22, i64 %24
  %26 = load ptr, ptr %25, align 8, !tbaa !13
  %27 = getelementptr inbounds nuw %struct.pointnlink_t, ptr %26, i32 0, i32 0
  %28 = load ptr, ptr %27, align 8, !tbaa !34
  %29 = load ptr, ptr %4, align 8, !tbaa !70
  %30 = getelementptr inbounds nuw %struct.deque_t, ptr %29, i32 0, i32 0
  %31 = load ptr, ptr %30, align 8, !tbaa !22
  %32 = load i64, ptr %6, align 8, !tbaa !19
  %33 = getelementptr inbounds nuw ptr, ptr %31, i64 %32
  %34 = load ptr, ptr %33, align 8, !tbaa !13
  %35 = getelementptr inbounds nuw %struct.pointnlink_t, ptr %34, i32 0, i32 0
  %36 = load ptr, ptr %35, align 8, !tbaa !34
  %37 = load ptr, ptr %5, align 8, !tbaa !13
  %38 = getelementptr inbounds nuw %struct.pointnlink_t, ptr %37, i32 0, i32 0
  %39 = load ptr, ptr %38, align 8, !tbaa !34
  %40 = getelementptr inbounds nuw { double, double }, ptr %28, i32 0, i32 0
  %41 = load double, ptr %40, align 8
  %42 = getelementptr inbounds nuw { double, double }, ptr %28, i32 0, i32 1
  %43 = load double, ptr %42, align 8
  %44 = getelementptr inbounds nuw { double, double }, ptr %36, i32 0, i32 0
  %45 = load double, ptr %44, align 8
  %46 = getelementptr inbounds nuw { double, double }, ptr %36, i32 0, i32 1
  %47 = load double, ptr %46, align 8
  %48 = getelementptr inbounds nuw { double, double }, ptr %39, i32 0, i32 0
  %49 = load double, ptr %48, align 8
  %50 = getelementptr inbounds nuw { double, double }, ptr %39, i32 0, i32 1
  %51 = load double, ptr %50, align 8
  %52 = call i32 @ccw(double %41, double %43, double %45, double %47, double %49, double %51)
  %53 = icmp eq i32 %52, 1
  br i1 %53, label %54, label %56

54:                                               ; preds = %19
  %55 = load i64, ptr %6, align 8, !tbaa !19
  store i64 %55, ptr %3, align 8
  store i32 1, ptr %7, align 4
  br label %60

56:                                               ; preds = %19
  br label %57

57:                                               ; preds = %56
  %58 = load i64, ptr %6, align 8, !tbaa !19
  %59 = add i64 %58, 1
  store i64 %59, ptr %6, align 8, !tbaa !19
  br label %12, !llvm.loop !76

60:                                               ; preds = %54, %18
  call void @llvm.lifetime.end.p0(i64 8, ptr %6) #9
  %61 = load i32, ptr %7, align 4
  switch i32 %61, label %122 [
    i32 2, label %62
    i32 1, label %120
  ]

62:                                               ; preds = %60
  call void @llvm.lifetime.start.p0(i64 8, ptr %8) #9
  %63 = load ptr, ptr %4, align 8, !tbaa !70
  %64 = getelementptr inbounds nuw %struct.deque_t, ptr %63, i32 0, i32 3
  %65 = load i64, ptr %64, align 8, !tbaa !24
  store i64 %65, ptr %8, align 8, !tbaa !19
  br label %66

66:                                               ; preds = %111, %62
  %67 = load i64, ptr %8, align 8, !tbaa !19
  %68 = load ptr, ptr %4, align 8, !tbaa !70
  %69 = getelementptr inbounds nuw %struct.deque_t, ptr %68, i32 0, i32 4
  %70 = load i64, ptr %69, align 8, !tbaa !43
  %71 = icmp ugt i64 %67, %70
  br i1 %71, label %73, label %72

72:                                               ; preds = %66
  store i32 5, ptr %7, align 4
  br label %114

73:                                               ; preds = %66
  %74 = load ptr, ptr %4, align 8, !tbaa !70
  %75 = getelementptr inbounds nuw %struct.deque_t, ptr %74, i32 0, i32 0
  %76 = load ptr, ptr %75, align 8, !tbaa !22
  %77 = load i64, ptr %8, align 8, !tbaa !19
  %78 = sub i64 %77, 1
  %79 = getelementptr inbounds nuw ptr, ptr %76, i64 %78
  %80 = load ptr, ptr %79, align 8, !tbaa !13
  %81 = getelementptr inbounds nuw %struct.pointnlink_t, ptr %80, i32 0, i32 0
  %82 = load ptr, ptr %81, align 8, !tbaa !34
  %83 = load ptr, ptr %4, align 8, !tbaa !70
  %84 = getelementptr inbounds nuw %struct.deque_t, ptr %83, i32 0, i32 0
  %85 = load ptr, ptr %84, align 8, !tbaa !22
  %86 = load i64, ptr %8, align 8, !tbaa !19
  %87 = getelementptr inbounds nuw ptr, ptr %85, i64 %86
  %88 = load ptr, ptr %87, align 8, !tbaa !13
  %89 = getelementptr inbounds nuw %struct.pointnlink_t, ptr %88, i32 0, i32 0
  %90 = load ptr, ptr %89, align 8, !tbaa !34
  %91 = load ptr, ptr %5, align 8, !tbaa !13
  %92 = getelementptr inbounds nuw %struct.pointnlink_t, ptr %91, i32 0, i32 0
  %93 = load ptr, ptr %92, align 8, !tbaa !34
  %94 = getelementptr inbounds nuw { double, double }, ptr %82, i32 0, i32 0
  %95 = load double, ptr %94, align 8
  %96 = getelementptr inbounds nuw { double, double }, ptr %82, i32 0, i32 1
  %97 = load double, ptr %96, align 8
  %98 = getelementptr inbounds nuw { double, double }, ptr %90, i32 0, i32 0
  %99 = load double, ptr %98, align 8
  %100 = getelementptr inbounds nuw { double, double }, ptr %90, i32 0, i32 1
  %101 = load double, ptr %100, align 8
  %102 = getelementptr inbounds nuw { double, double }, ptr %93, i32 0, i32 0
  %103 = load double, ptr %102, align 8
  %104 = getelementptr inbounds nuw { double, double }, ptr %93, i32 0, i32 1
  %105 = load double, ptr %104, align 8
  %106 = call i32 @ccw(double %95, double %97, double %99, double %101, double %103, double %105)
  %107 = icmp eq i32 %106, 2
  br i1 %107, label %108, label %110

108:                                              ; preds = %73
  %109 = load i64, ptr %8, align 8, !tbaa !19
  store i64 %109, ptr %3, align 8
  store i32 1, ptr %7, align 4
  br label %114

110:                                              ; preds = %73
  br label %111

111:                                              ; preds = %110
  %112 = load i64, ptr %8, align 8, !tbaa !19
  %113 = add i64 %112, -1
  store i64 %113, ptr %8, align 8, !tbaa !19
  br label %66, !llvm.loop !77

114:                                              ; preds = %108, %72
  call void @llvm.lifetime.end.p0(i64 8, ptr %8) #9
  %115 = load i32, ptr %7, align 4
  switch i32 %115, label %122 [
    i32 5, label %116
    i32 1, label %120
  ]

116:                                              ; preds = %114
  %117 = load ptr, ptr %4, align 8, !tbaa !70
  %118 = getelementptr inbounds nuw %struct.deque_t, ptr %117, i32 0, i32 4
  %119 = load i64, ptr %118, align 8, !tbaa !43
  store i64 %119, ptr %3, align 8
  br label %120

120:                                              ; preds = %116, %114, %60
  %121 = load i64, ptr %3, align 8
  ret i64 %121

122:                                              ; preds = %114, %60
  unreachable
}