; Function Attrs: nounwind uwtable
define internal fastcc i64 @finddqsplit(ptr noundef nonnull readonly captures(none) %0, ptr noundef readonly captures(none) %1) unnamed_addr #0 {
  %3 = getelementptr inbounds nuw i8, ptr %0, i64 16
  %4 = load i64, ptr %3, align 8, !tbaa !16
  %5 = getelementptr inbounds nuw i8, ptr %0, i64 32
  br label %6

6:                                                ; preds = %9, %2
  %.024 = phi i64 [ %4, %2 ], [ %11, %9 ]
  %7 = load i64, ptr %5, align 8, !tbaa !63
  %8 = icmp ult i64 %.024, %7
  br i1 %8, label %9, label %30

9:                                                ; preds = %6
  %10 = load ptr, ptr %0, align 8, !tbaa !15
  %11 = add nuw i64 %.024, 1
  %12 = getelementptr inbounds nuw ptr, ptr %10, i64 %11
  %13 = load ptr, ptr %12, align 8, !tbaa !30
  %14 = load ptr, ptr %13, align 8, !tbaa !26
  %15 = getelementptr inbounds nuw ptr, ptr %10, i64 %.024
  %16 = load ptr, ptr %15, align 8, !tbaa !30
  %17 = load ptr, ptr %16, align 8, !tbaa !26
  %18 = load ptr, ptr %1, align 8, !tbaa !26
  %19 = load double, ptr %14, align 8
  %20 = getelementptr inbounds nuw i8, ptr %14, i64 8
  %21 = load double, ptr %20, align 8
  %22 = load double, ptr %17, align 8
  %23 = getelementptr inbounds nuw i8, ptr %17, i64 8
  %24 = load double, ptr %23, align 8
  %25 = load double, ptr %18, align 8
  %26 = getelementptr inbounds nuw i8, ptr %18, i64 8
  %27 = load double, ptr %26, align 8
  %28 = tail call i32 @ccw(double %19, double %21, double %22, double %24, double %25, double %27) #12
  %29 = icmp eq i32 %28, 1
  br i1 %29, label %.loopexit, label %6, !llvm.loop !80

30:                                               ; preds = %6
  %31 = getelementptr inbounds nuw i8, ptr %0, i64 24
  %32 = load i64, ptr %31, align 8, !tbaa !17
  %33 = icmp ugt i64 %32, %7
  br i1 %33, label %.lr.ph, label %.loopexit

.lr.ph:                                           ; preds = %30, %53
  %.041 = phi i64 [ %54, %53 ], [ %32, %30 ]
  %34 = load ptr, ptr %0, align 8, !tbaa !15
  %35 = getelementptr ptr, ptr %34, i64 %.041
  %36 = getelementptr i8, ptr %35, i64 -8
  %37 = load ptr, ptr %36, align 8, !tbaa !30
  %38 = load ptr, ptr %37, align 8, !tbaa !26
  %39 = load ptr, ptr %35, align 8, !tbaa !30
  %40 = load ptr, ptr %39, align 8, !tbaa !26
  %41 = load ptr, ptr %1, align 8, !tbaa !26
  %42 = load double, ptr %38, align 8
  %43 = getelementptr inbounds nuw i8, ptr %38, i64 8
  %44 = load double, ptr %43, align 8
  %45 = load double, ptr %40, align 8
  %46 = getelementptr inbounds nuw i8, ptr %40, i64 8
  %47 = load double, ptr %46, align 8
  %48 = load double, ptr %41, align 8
  %49 = getelementptr inbounds nuw i8, ptr %41, i64 8
  %50 = load double, ptr %49, align 8
  %51 = tail call i32 @ccw(double %42, double %44, double %45, double %47, double %48, double %50) #12
  %52 = icmp eq i32 %51, 2
  br i1 %52, label %.loopexit, label %53

53:                                               ; preds = %.lr.ph
  %54 = add i64 %.041, -1
  %55 = load i64, ptr %5, align 8, !tbaa !63
  %56 = icmp ugt i64 %54, %55
  br i1 %56, label %.lr.ph, label %.loopexit, !llvm.loop !81

.loopexit:                                        ; preds = %9, %.lr.ph, %53, %30
  %.126 = phi i64 [ %7, %30 ], [ %.041, %.lr.ph ], [ %55, %53 ], [ %.024, %9 ]
  ret i64 %.126
}